target datalayout = "e-m:e-p270:32:32-p271:32:32-p272:64:64-i64:64-i128:128-f80:128-n8:16:32:64-S128"
target triple = "x86_64-pc-linux-gnu"

%struct.evthread_lock_callbacks = type { i32, i32, ptr, ptr, ptr, ptr }
%struct.ev_token_bucket = type { i64, i64, i32 }
%struct.ev_token_bucket_cfg = type { i64, i64, i64, i64, %struct.timeval, i32 }
%struct.timeval = type { i64, i64 }
%struct.bufferevent_private = type { %struct.bufferevent, ptr, i8, i16, i16, i16, i32, i32, %struct.event_callback, i32, i32, ptr, i64, i64, ptr, %union.anon.7, ptr }
%struct.bufferevent = type { ptr, ptr, %struct.event, %struct.event, ptr, ptr, %struct.event_watermark, %struct.event_watermark, ptr, ptr, ptr, ptr, %struct.timeval, %struct.timeval, i16 }
%struct.event = type { %struct.event_callback, %union.anon.0, i32, i16, i16, ptr, %union.anon.2, %struct.timeval }
%union.anon.0 = type { %struct.anon.1 }
%struct.anon.1 = type { ptr, ptr }
%union.anon.2 = type { %struct.anon.3 }
%struct.anon.3 = type { %struct.anon.4, %struct.timeval }
%struct.anon.4 = type { ptr, ptr }
%struct.event_watermark = type { i64, i64 }
%struct.event_callback = type { %struct.anon, i16, i8, i8, %union.anon, ptr }
%struct.anon = type { ptr, ptr }
%union.anon = type { ptr }
%union.anon.7 = type { %struct.sockaddr_in6 }
%struct.sockaddr_in6 = type { i16, i16, i32, %struct.in6_addr, i32 }
%struct.in6_addr = type { %union.anon.8 }
%union.anon.8 = type { [4 x i32] }
%struct.bufferevent_rate_limit = type { %struct.anon.9, ptr, %struct.ev_token_bucket, ptr, %struct.event }
%struct.anon.9 = type { ptr, ptr }
%struct.bufferevent_rate_limit_group = type { %struct.rlim_group_member_list, %struct.ev_token_bucket, %struct.ev_token_bucket_cfg, i8, i64, i64, i32, i64, i64, %struct.event, %struct.evutil_weakrand_state, ptr }
%struct.rlim_group_member_list = type { ptr }
%struct.evutil_weakrand_state = type { i32 }

@evthread_lock_fns_ = external global %struct.evthread_lock_callbacks, align 8

; Function Attrs: nounwind uwtable
define hidden i32 @ev_token_bucket_update_(ptr noundef %0, ptr noundef %1, i32 noundef %2) #0 {
  %4 = alloca i32, align 4
  %5 = alloca ptr, align 8
  %6 = alloca ptr, align 8
  %7 = alloca i32, align 4
  %8 = alloca i32, align 4
  %9 = alloca i32, align 4
  store ptr %0, ptr %5, align 8
  store ptr %1, ptr %6, align 8
  store i32 %2, ptr %7, align 4
  call void @llvm.lifetime.start.p0(i64 4, ptr %8) #5
  %10 = load i32, ptr %7, align 4
  %11 = load ptr, ptr %5, align 8
  %12 = getelementptr inbounds nuw %struct.ev_token_bucket, ptr %11, i32 0, i32 2
  %13 = load i32, ptr %12, align 8
  %14 = sub i32 %10, %13
  store i32 %14, ptr %8, align 4
  %15 = load i32, ptr %8, align 4
  %16 = icmp eq i32 %15, 0
  br i1 %16, label %20, label %17

17:                                               ; preds = %3
  %18 = load i32, ptr %8, align 4
  %19 = icmp ugt i32 %18, 2147483647
  br i1 %19, label %20, label %21

20:                                               ; preds = %17, %3
  store i32 0, ptr %4, align 4
  store i32 1, ptr %9, align 4
  br label %89

21:                                               ; preds = %17
  %22 = load ptr, ptr %6, align 8
  %23 = getelementptr inbounds nuw %struct.ev_token_bucket_cfg, ptr %22, i32 0, i32 1
  %24 = load i64, ptr %23, align 8
  %25 = load ptr, ptr %5, align 8
  %26 = getelementptr inbounds nuw %struct.ev_token_bucket, ptr %25, i32 0, i32 0
  %27 = load i64, ptr %26, align 8
  %28 = sub i64 %24, %27
  %29 = load i32, ptr %8, align 4
  %30 = zext i32 %29 to i64
  %31 = udiv i64 %28, %30
  %32 = load ptr, ptr %6, align 8
  %33 = getelementptr inbounds nuw %struct.ev_token_bucket_cfg, ptr %32, i32 0, i32 0
  %34 = load i64, ptr %33, align 8
  %35 = icmp ult i64 %31, %34
  br i1 %35, label %36, label %42

36:                                               ; preds = %21
  %37 = load ptr, ptr %6, align 8
  %38 = getelementptr inbounds nuw %struct.ev_token_bucket_cfg, ptr %37, i32 0, i32 1
  %39 = load i64, ptr %38, align 8
  %40 = load ptr, ptr %5, align 8
  %41 = getelementptr inbounds nuw %struct.ev_token_bucket, ptr %40, i32 0, i32 0
  store i64 %39, ptr %41, align 8
  br label %53

42:                                               ; preds = %21
  %43 = load i32, ptr %8, align 4
  %44 = zext i32 %43 to i64
  %45 = load ptr, ptr %6, align 8
  %46 = getelementptr inbounds nuw %struct.ev_token_bucket_cfg, ptr %45, i32 0, i32 0
  %47 = load i64, ptr %46, align 8
  %48 = mul i64 %44, %47
  %49 = load ptr, ptr %5, align 8
  %50 = getelementptr inbounds nuw %struct.ev_token_bucket, ptr %49, i32 0, i32 0
  %51 = load i64, ptr %50, align 8
  %52 = add i64 %51, %48
  store i64 %52, ptr %50, align 8
  br label %53

53:                                               ; preds = %42, %36
  %54 = load ptr, ptr %6, align 8
  %55 = getelementptr inbounds nuw %struct.ev_token_bucket_cfg, ptr %54, i32 0, i32 3
  %56 = load i64, ptr %55, align 8
  %57 = load ptr, ptr %5, align 8
  %58 = getelementptr inbounds nuw %struct.ev_token_bucket, ptr %57, i32 0, i32 1
  %59 = load i64, ptr %58, align 8
  %60 = sub i64 %56, %59
  %61 = load i32, ptr %8, align 4
  %62 = zext i32 %61 to i64
  %63 = udiv i64 %60, %62
  %64 = load ptr, ptr %6, align 8
  %65 = getelementptr inbounds nuw %struct.ev_token_bucket_cfg, ptr %64, i32 0, i32 2
  %66 = load i64, ptr %65, align 8
  %67 = icmp ult i64 %63, %66
  br i1 %67, label %68, label %74

68:                                               ; preds = %53
  %69 = load ptr, ptr %6, align 8
  %70 = getelementptr inbounds nuw %struct.ev_token_bucket_cfg, ptr %69, i32 0, i32 3
  %71 = load i64, ptr %70, align 8
  %72 = load ptr, ptr %5, align 8
  %73 = getelementptr inbounds nuw %struct.ev_token_bucket, ptr %72, i32 0, i32 1
  store i64 %71, ptr %73, align 8
  br label %85

74:                                               ; preds = %53
  %75 = load i32, ptr %8, align 4
  %76 = zext i32 %75 to i64
  %77 = load ptr, ptr %6, align 8
  %78 = getelementptr inbounds nuw %struct.ev_token_bucket_cfg, ptr %77, i32 0, i32 2
  %79 = load i64, ptr %78, align 8
  %80 = mul i64 %76, %79
  %81 = load ptr, ptr %5, align 8
  %82 = getelementptr inbounds nuw %struct.ev_token_bucket, ptr %81, i32 0, i32 1
  %83 = load i64, ptr %82, align 8
  %84 = add i64 %83, %80
  store i64 %84, ptr %82, align 8
  br label %85

85:                                               ; preds = %74, %68
  %86 = load i32, ptr %7, align 4
  %87 = load ptr, ptr %5, align 8
  %88 = getelementptr inbounds nuw %struct.ev_token_bucket, ptr %87, i32 0, i32 2
  store i32 %86, ptr %88, align 8
  store i32 1, ptr %4, align 4
  store i32 1, ptr %9, align 4
  br label %89

89:                                               ; preds = %85, %20
  call void @llvm.lifetime.end.p0(i64 4, ptr %8) #5
  %90 = load i32, ptr %4, align 4
  ret i32 %90
}

; Function Attrs: nounwind uwtable
define hidden i32 @ev_token_bucket_get_tick_(ptr noundef %0, ptr noundef %1) #0 {
  %3 = alloca ptr, align 8
  %4 = alloca ptr, align 8
  %5 = alloca i64, align 8
  store ptr %0, ptr %3, align 8
  store ptr %1, ptr %4, align 8
  call void @llvm.lifetime.start.p0(i64 8, ptr %5) #5
  %6 = load ptr, ptr %3, align 8
  %7 = getelementptr inbounds nuw %struct.timeval, ptr %6, i32 0, i32 0
  %8 = load i64, ptr %7, align 8
  %9 = mul i64 %8, 1000
  %10 = load ptr, ptr %3, align 8
  %11 = getelementptr inbounds nuw %struct.timeval, ptr %10, i32 0, i32 1
  %12 = load i64, ptr %11, align 8
  %13 = sdiv i64 %12, 1000
  %14 = add i64 %9, %13
  store i64 %14, ptr %5, align 8
  %15 = load i64, ptr %5, align 8
  %16 = load ptr, ptr %4, align 8
  %17 = getelementptr inbounds nuw %struct.ev_token_bucket_cfg, ptr %16, i32 0, i32 5
  %18 = load i32, ptr %17, align 8
  %19 = zext i32 %18 to i64
  %20 = udiv i64 %15, %19
  %21 = trunc i64 %20 to i32
  call void @llvm.lifetime.end.p0(i64 8, ptr %5) #5
  ret i32 %21
}

; Function Attrs: inlinehint nounwind uwtable
define internal void @bufferevent_update_buckets(ptr noundef %0) #4 {
  %2 = alloca ptr, align 8
  %3 = alloca %struct.timeval, align 8
  %4 = alloca i32, align 4
  store ptr %0, ptr %2, align 8
  call void @llvm.lifetime.start.p0(i64 16, ptr %3) #5
  call void @llvm.lifetime.start.p0(i64 4, ptr %4) #5
  %5 = load ptr, ptr %2, align 8
  %6 = getelementptr inbounds nuw %struct.bufferevent_private, ptr %5, i32 0, i32 0
  %7 = getelementptr inbounds nuw %struct.bufferevent, ptr %6, i32 0, i32 0
  %8 = load ptr, ptr %7, align 8
  %9 = call i32 @event_base_gettimeofday_cached(ptr noundef %8, ptr noundef %3)
  %10 = load ptr, ptr %2, align 8
  %11 = getelementptr inbounds nuw %struct.bufferevent_private, ptr %10, i32 0, i32 14
  %12 = load ptr, ptr %11, align 8
  %13 = getelementptr inbounds nuw %struct.bufferevent_rate_limit, ptr %12, i32 0, i32 3
  %14 = load ptr, ptr %13, align 8
  %15 = call i32 @ev_token_bucket_get_tick_(ptr noundef %3, ptr noundef %14)
  store i32 %15, ptr %4, align 4
  %16 = load i32, ptr %4, align 4
  %17 = load ptr, ptr %2, align 8
  %18 = getelementptr inbounds nuw %struct.bufferevent_private, ptr %17, i32 0, i32 14
  %19 = load ptr, ptr %18, align 8
  %20 = getelementptr inbounds nuw %struct.bufferevent_rate_limit, ptr %19, i32 0, i32 2
  %21 = getelementptr inbounds nuw %struct.ev_token_bucket, ptr %20, i32 0, i32 2
  %22 = load i32, ptr %21, align 8
  %23 = icmp ne i32 %16, %22
  br i1 %23, label %24, label %36

24:                                               ; preds = %1
  %25 = load ptr, ptr %2, align 8
  %26 = getelementptr inbounds nuw %struct.bufferevent_private, ptr %25, i32 0, i32 14
  %27 = load ptr, ptr %26, align 8
  %28 = getelementptr inbounds nuw %struct.bufferevent_rate_limit, ptr %27, i32 0, i32 2
  %29 = load ptr, ptr %2, align 8
  %30 = getelementptr inbounds nuw %struct.bufferevent_private, ptr %29, i32 0, i32 14
  %31 = load ptr, ptr %30, align 8
  %32 = getelementptr inbounds nuw %struct.bufferevent_rate_limit, ptr %31, i32 0, i32 3
  %33 = load ptr, ptr %32, align 8
  %34 = load i32, ptr %4, align 4
  %35 = call i32 @ev_token_bucket_update_(ptr noundef %28, ptr noundef %33, i32 noundef %34)
  br label %36

36:                                               ; preds = %24, %1
  call void @llvm.lifetime.end.p0(i64 4, ptr %4) #5
  call void @llvm.lifetime.end.p0(i64 16, ptr %3) #5
  ret void
}

; Function Attrs: inlinehint nounwind uwtable
define internal i64 @bufferevent_get_rlim_max_(ptr noundef %0, i32 noundef %1) #4 {
  %3 = alloca i64, align 8
  %4 = alloca ptr, align 8
  %5 = alloca i32, align 4
  %6 = alloca i64, align 8
  %7 = alloca i32, align 4
  %8 = alloca ptr, align 8
  %9 = alloca i64, align 8
  store ptr %0, ptr %4, align 8
  store i32 %1, ptr %5, align 4
  call void @llvm.lifetime.start.p0(i64 8, ptr %6) #5
  %10 = load i32, ptr %5, align 4
  %11 = icmp ne i32 %10, 0
  br i1 %11, label %12, label %16

12:                                               ; preds = %2
  %13 = load ptr, ptr %4, align 8
  %14 = getelementptr inbounds nuw %struct.bufferevent_private, ptr %13, i32 0, i32 13
  %15 = load i64, ptr %14, align 8
  br label %20

16:                                               ; preds = %2
  %17 = load ptr, ptr %4, align 8
  %18 = getelementptr inbounds nuw %struct.bufferevent_private, ptr %17, i32 0, i32 12
  %19 = load i64, ptr %18, align 8
  br label %20

20:                                               ; preds = %16, %12
  %21 = phi i64 [ %15, %12 ], [ %19, %16 ]
  store i64 %21, ptr %6, align 8
  %22 = load ptr, ptr %4, align 8
  %23 = getelementptr inbounds nuw %struct.bufferevent_private, ptr %22, i32 0, i32 14
  %24 = load ptr, ptr %23, align 8
  %25 = icmp ne ptr %24, null
  br i1 %25, label %28, label %26

26:                                               ; preds = %20
  %27 = load i64, ptr %6, align 8
  store i64 %27, ptr %3, align 8
  store i32 1, ptr %7, align 4
  br label %169

28:                                               ; preds = %20
  %29 = load ptr, ptr %4, align 8
  %30 = getelementptr inbounds nuw %struct.bufferevent_private, ptr %29, i32 0, i32 14
  %31 = load ptr, ptr %30, align 8
  %32 = getelementptr inbounds nuw %struct.bufferevent_rate_limit, ptr %31, i32 0, i32 3
  %33 = load ptr, ptr %32, align 8
  %34 = icmp ne ptr %33, null
  br i1 %34, label %35, label %55

35:                                               ; preds = %28
  %36 = load ptr, ptr %4, align 8
  call void @bufferevent_update_buckets(ptr noundef %36)
  %37 = load i32, ptr %5, align 4
  %38 = icmp ne i32 %37, 0
  br i1 %38, label %39, label %46

39:                                               ; preds = %35
  %40 = load ptr, ptr %4, align 8
  %41 = getelementptr inbounds nuw %struct.bufferevent_private, ptr %40, i32 0, i32 14
  %42 = load ptr, ptr %41, align 8
  %43 = getelementptr inbounds nuw %struct.bufferevent_rate_limit, ptr %42, i32 0, i32 2
  %44 = getelementptr inbounds nuw %struct.ev_token_bucket, ptr %43, i32 0, i32 1
  %45 = load i64, ptr %44, align 8
  br label %53

46:                                               ; preds = %35
  %47 = load ptr, ptr %4, align 8
  %48 = getelementptr inbounds nuw %struct.bufferevent_private, ptr %47, i32 0, i32 14
  %49 = load ptr, ptr %48, align 8
  %50 = getelementptr inbounds nuw %struct.bufferevent_rate_limit, ptr %49, i32 0, i32 2
  %51 = getelementptr inbounds nuw %struct.ev_token_bucket, ptr %50, i32 0, i32 0
  %52 = load i64, ptr %51, align 8
  br label %53

53:                                               ; preds = %46, %39
  %54 = phi i64 [ %45, %39 ], [ %52, %46 ]
  store i64 %54, ptr %6, align 8
  br label %55

55:                                               ; preds = %53, %28
  %56 = load ptr, ptr %4, align 8
  %57 = getelementptr inbounds nuw %struct.bufferevent_private, ptr %56, i32 0, i32 14
  %58 = load ptr, ptr %57, align 8
  %59 = getelementptr inbounds nuw %struct.bufferevent_rate_limit, ptr %58, i32 0, i32 1
  %60 = load ptr, ptr %59, align 8
  %61 = icmp ne ptr %60, null
  br i1 %61, label %62, label %163

62:                                               ; preds = %55
  call void @llvm.lifetime.start.p0(i64 8, ptr %8) #5
  %63 = load ptr, ptr %4, align 8
  %64 = getelementptr inbounds nuw %struct.bufferevent_private, ptr %63, i32 0, i32 14
  %65 = load ptr, ptr %64, align 8
  %66 = getelementptr inbounds nuw %struct.bufferevent_rate_limit, ptr %65, i32 0, i32 1
  %67 = load ptr, ptr %66, align 8
  store ptr %67, ptr %8, align 8
  call void @llvm.lifetime.start.p0(i64 8, ptr %9) #5
  br label %68

68:                                               ; preds = %62
  %69 = load ptr, ptr %8, align 8
  %70 = getelementptr inbounds nuw %struct.bufferevent_rate_limit_group, ptr %69, i32 0, i32 11
  %71 = load ptr, ptr %70, align 8
  %72 = icmp ne ptr %71, null
  br i1 %72, label %73, label %79

73:                                               ; preds = %68
  %74 = load ptr, ptr getelementptr inbounds nuw (%struct.evthread_lock_callbacks, ptr @evthread_lock_fns_, i32 0, i32 4), align 8
  %75 = load ptr, ptr %8, align 8
  %76 = getelementptr inbounds nuw %struct.bufferevent_rate_limit_group, ptr %75, i32 0, i32 11
  %77 = load ptr, ptr %76, align 8
  %78 = call i32 %74(i32 noundef 0, ptr noundef %77)
  br label %79

79:                                               ; preds = %73, %68
  br label %80

80:                                               ; preds = %79
  br label %81

81:                                               ; preds = %80
  %82 = load i32, ptr %5, align 4
  %83 = icmp ne i32 %82, 0
  br i1 %83, label %84, label %92

84:                                               ; preds = %81
  %85 = load ptr, ptr %8, align 8
  %86 = getelementptr inbounds nuw %struct.bufferevent_rate_limit_group, ptr %85, i32 0, i32 3
  %87 = load i8, ptr %86, align 8
  %88 = lshr i8 %87, 1
  %89 = and i8 %88, 1
  %90 = zext i8 %89 to i32
  %91 = icmp ne i32 %90, 0
  br i1 %91, label %99, label %109

92:                                               ; preds = %81
  %93 = load ptr, ptr %8, align 8
  %94 = getelementptr inbounds nuw %struct.bufferevent_rate_limit_group, ptr %93, i32 0, i32 3
  %95 = load i8, ptr %94, align 8
  %96 = and i8 %95, 1
  %97 = zext i8 %96 to i32
  %98 = icmp ne i32 %97, 0
  br i1 %98, label %99, label %109

99:                                               ; preds = %92, %84
  %100 = load i32, ptr %5, align 4
  %101 = icmp ne i32 %100, 0
  br i1 %101, label %102, label %105

102:                                              ; preds = %99
  %103 = load ptr, ptr %4, align 8
  %104 = getelementptr inbounds nuw %struct.bufferevent_private, ptr %103, i32 0, i32 0
  call void @bufferevent_suspend_write_(ptr noundef %104, i16 noundef zeroext 4)
  br label %108

105:                                              ; preds = %99
  %106 = load ptr, ptr %4, align 8
  %107 = getelementptr inbounds nuw %struct.bufferevent_private, ptr %106, i32 0, i32 0
  call void @bufferevent_suspend_read_(ptr noundef %107, i16 noundef zeroext 4)
  br label %108

108:                                              ; preds = %105, %102
  store i64 0, ptr %9, align 8
  br label %139

109:                                              ; preds = %92, %84
  %110 = load i32, ptr %5, align 4
  %111 = icmp ne i32 %110, 0
  br i1 %111, label %112, label %117

112:                                              ; preds = %109
  %113 = load ptr, ptr %8, align 8
  %114 = getelementptr inbounds nuw %struct.bufferevent_rate_limit_group, ptr %113, i32 0, i32 1
  %115 = getelementptr inbounds nuw %struct.ev_token_bucket, ptr %114, i32 0, i32 1
  %116 = load i64, ptr %115, align 8
  br label %122

117:                                              ; preds = %109
  %118 = load ptr, ptr %8, align 8
  %119 = getelementptr inbounds nuw %struct.bufferevent_rate_limit_group, ptr %118, i32 0, i32 1
  %120 = getelementptr inbounds nuw %struct.ev_token_bucket, ptr %119, i32 0, i32 0
  %121 = load i64, ptr %120, align 8
  br label %122

122:                                              ; preds = %117, %112
  %123 = phi i64 [ %116, %112 ], [ %121, %117 ]
  %124 = load ptr, ptr %8, align 8
  %125 = getelementptr inbounds nuw %struct.bufferevent_rate_limit_group, ptr %124, i32 0, i32 6
  %126 = load i32, ptr %125, align 8
  %127 = sext i32 %126 to i64
  %128 = sdiv i64 %123, %127
  store i64 %128, ptr %9, align 8
  %129 = load i64, ptr %9, align 8
  %130 = load ptr, ptr %8, align 8
  %131 = getelementptr inbounds nuw %struct.bufferevent_rate_limit_group, ptr %130, i32 0, i32 7
  %132 = load i64, ptr %131, align 8
  %133 = icmp slt i64 %129, %132
  br i1 %133, label %134, label %138

134:                                              ; preds = %122
  %135 = load ptr, ptr %8, align 8
  %136 = getelementptr inbounds nuw %struct.bufferevent_rate_limit_group, ptr %135, i32 0, i32 7
  %137 = load i64, ptr %136, align 8
  store i64 %137, ptr %9, align 8
  br label %138

138:                                              ; preds = %134, %122
  br label %139

139:                                              ; preds = %138, %108
  br label %140

140:                                              ; preds = %139
  %141 = load ptr, ptr %8, align 8
  %142 = getelementptr inbounds nuw %struct.bufferevent_rate_limit_group, ptr %141, i32 0, i32 11
  %143 = load ptr, ptr %142, align 8
  %144 = icmp ne ptr %143, null
  br i1 %144, label %145, label %151

145:                                              ; preds = %140
  %146 = load ptr, ptr getelementptr inbounds nuw (%struct.evthread_lock_callbacks, ptr @evthread_lock_fns_, i32 0, i32 5), align 8
  %147 = load ptr, ptr %8, align 8
  %148 = getelementptr inbounds nuw %struct.bufferevent_rate_limit_group, ptr %147, i32 0, i32 11
  %149 = load ptr, ptr %148, align 8
  %150 = call i32 %146(i32 noundef 0, ptr noundef %149)
  br label %151

151:                                              ; preds = %145, %140
  br label %152

152:                                              ; preds = %151
  br label %153

153:                                              ; preds = %152
  br label %154

154:                                              ; preds = %153
  %155 = load i64, ptr %6, align 8
  %156 = load i64, ptr %9, align 8
  %157 = icmp sgt i64 %155, %156
  br i1 %157, label %158, label %160

158:                                              ; preds = %154
  %159 = load i64, ptr %9, align 8
  store i64 %159, ptr %6, align 8
  br label %160

160:                                              ; preds = %158, %154
  br label %161

161:                                              ; preds = %160
  br label %162

162:                                              ; preds = %161
  call void @llvm.lifetime.end.p0(i64 8, ptr %9) #5
  call void @llvm.lifetime.end.p0(i64 8, ptr %8) #5
  br label %163

163:                                              ; preds = %162, %55
  %164 = load i64, ptr %6, align 8
  %165 = icmp slt i64 %164, 0
  br i1 %165, label %166, label %167

166:                                              ; preds = %163
  store i64 0, ptr %6, align 8
  br label %167

167:                                              ; preds = %166, %163
  %168 = load i64, ptr %6, align 8
  store i64 %168, ptr %3, align 8
  store i32 1, ptr %7, align 4
  br label %169

169:                                              ; preds = %167, %26
  call void @llvm.lifetime.end.p0(i64 8, ptr %6) #5
  %170 = load i64, ptr %3, align 8
  ret i64 %170
}