; Function Attrs: inlinehint nounwind uwtable
define internal fastcc i64 @bufferevent_get_rlim_max_(ptr noundef %0, i32 noundef range(i32 0, 2) %1) unnamed_addr #6 {
  %3 = alloca %struct.timeval, align 8
  %.not = icmp eq i32 %1, 0
  %.in.v = select i1 %.not, i64 456, i64 464
  %.in = getelementptr inbounds nuw i8, ptr %0, i64 %.in.v
  %4 = load i64, ptr %.in, align 8
  %5 = getelementptr inbounds nuw i8, ptr %0, i64 472
  %6 = load ptr, ptr %5, align 8
  %.not42 = icmp eq ptr %6, null
  br i1 %.not42, label %92, label %7

7:                                                ; preds = %2
  %8 = getelementptr inbounds nuw i8, ptr %6, i64 48
  %9 = load ptr, ptr %8, align 8
  %.not43 = icmp eq ptr %9, null
  br i1 %.not43, label %58, label %10

10:                                               ; preds = %7
  call void @llvm.lifetime.start.p0(i64 16, ptr nonnull %3) #10
  %11 = load ptr, ptr %0, align 8
  %12 = call i32 @event_base_gettimeofday_cached(ptr noundef %11, ptr noundef nonnull %3) #10
  %13 = load ptr, ptr %5, align 8
  %14 = getelementptr inbounds nuw i8, ptr %13, i64 48
  %15 = load ptr, ptr %14, align 8
  %16 = load i64, ptr %3, align 8
  %17 = mul i64 %16, 1000
  %18 = getelementptr inbounds nuw i8, ptr %3, i64 8
  %19 = load i64, ptr %18, align 8
  %20 = sdiv i64 %19, 1000
  %21 = add i64 %20, %17
  %22 = getelementptr inbounds nuw i8, ptr %15, i64 48
  %23 = load i32, ptr %22, align 8
  %24 = zext i32 %23 to i64
  %25 = udiv i64 %21, %24
  %26 = trunc i64 %25 to i32
  %27 = getelementptr inbounds nuw i8, ptr %13, i64 40
  %28 = load i32, ptr %27, align 8
  %.not.i = icmp eq i32 %28, %26
  br i1 %.not.i, label %bufferevent_update_buckets.exit, label %29

29:                                               ; preds = %10
  %30 = sub i32 %26, %28
  %31 = icmp slt i32 %30, 0
  br i1 %31, label %bufferevent_update_buckets.exit, label %32

32:                                               ; preds = %29
  %33 = getelementptr inbounds nuw i8, ptr %13, i64 24
  %34 = getelementptr inbounds nuw i8, ptr %15, i64 8
  %35 = load i64, ptr %34, align 8
  %36 = load i64, ptr %33, align 8
  %37 = sub i64 %35, %36
  %38 = zext nneg i32 %30 to i64
  %39 = udiv i64 %37, %38
  %40 = load i64, ptr %15, align 8
  %41 = icmp ult i64 %39, %40
  %42 = mul i64 %40, %38
  %43 = add i64 %42, %36
  %storemerge.i.i = select i1 %41, i64 %35, i64 %43
  store i64 %storemerge.i.i, ptr %33, align 8
  %44 = getelementptr inbounds nuw i8, ptr %15, i64 24
  %45 = load i64, ptr %44, align 8
  %46 = getelementptr inbounds nuw i8, ptr %13, i64 32
  %47 = load i64, ptr %46, align 8
  %48 = sub i64 %45, %47
  %49 = udiv i64 %48, %38
  %50 = getelementptr inbounds nuw i8, ptr %15, i64 16
  %51 = load i64, ptr %50, align 8
  %52 = icmp ult i64 %49, %51
  %53 = mul i64 %51, %38
  %54 = add i64 %53, %47
  %storemerge28.i.i = select i1 %52, i64 %45, i64 %54
  store i64 %storemerge28.i.i, ptr %46, align 8
  store i32 %26, ptr %27, align 8
  br label %bufferevent_update_buckets.exit

bufferevent_update_buckets.exit:                  ; preds = %10, %29, %32
  call void @llvm.lifetime.end.p0(i64 16, ptr nonnull %3) #10
  %55 = load ptr, ptr %5, align 8
  %. = select i1 %.not, i64 24, i64 32
  %56 = getelementptr inbounds nuw i8, ptr %55, i64 %.
  %57 = load i64, ptr %56, align 8
  br label %58

58:                                               ; preds = %bufferevent_update_buckets.exit, %7
  %59 = phi ptr [ %55, %bufferevent_update_buckets.exit ], [ %6, %7 ]
  %.035 = phi i64 [ %57, %bufferevent_update_buckets.exit ], [ %4, %7 ]
  %60 = getelementptr inbounds nuw i8, ptr %59, i64 16
  %61 = load ptr, ptr %60, align 8
  %.not45 = icmp eq ptr %61, null
  br i1 %.not45, label %91, label %62

62:                                               ; preds = %58
  %63 = getelementptr inbounds nuw i8, ptr %61, i64 264
  %64 = load ptr, ptr %63, align 8
  %.not46 = icmp eq ptr %64, null
  br i1 %.not46, label %68, label %65

65:                                               ; preds = %62
  %66 = load ptr, ptr getelementptr inbounds nuw (i8, ptr @evthread_lock_fns_, i64 24), align 8
  %67 = call i32 %66(i32 noundef 0, ptr noundef nonnull %64) #10
  br label %68

68:                                               ; preds = %65, %62
  %69 = getelementptr inbounds nuw i8, ptr %61, i64 88
  %70 = load i8, ptr %69, align 8
  br i1 %.not, label %73, label %71

71:                                               ; preds = %68
  %72 = and i8 %70, 2
  %.not48 = icmp eq i8 %72, 0
  br i1 %.not48, label %77, label %75

73:                                               ; preds = %68
  %74 = and i8 %70, 1
  %.not47 = icmp eq i8 %74, 0
  br i1 %.not47, label %77, label %76

75:                                               ; preds = %71
  call void @bufferevent_suspend_write_(ptr noundef nonnull %0, i16 noundef zeroext 4) #10
  br label %85

76:                                               ; preds = %73
  call void @bufferevent_suspend_read_(ptr noundef nonnull %0, i16 noundef zeroext 4) #10
  br label %85

77:                                               ; preds = %73, %71
  %.in49.v = phi i64 [ 8, %73 ], [ 16, %71 ]
  %.in49 = getelementptr inbounds nuw i8, ptr %61, i64 %.in49.v
  %78 = load i64, ptr %.in49, align 8
  %79 = getelementptr inbounds nuw i8, ptr %61, i64 112
  %80 = load i32, ptr %79, align 8
  %81 = sext i32 %80 to i64
  %82 = sdiv i64 %78, %81
  %83 = getelementptr inbounds nuw i8, ptr %61, i64 120
  %84 = load i64, ptr %83, align 8
  %spec.select51 = call i64 @llvm.smax.i64(i64 %82, i64 %84)
  br label %85

85:                                               ; preds = %77, %75, %76
  %.0 = phi i64 [ 0, %76 ], [ 0, %75 ], [ %spec.select51, %77 ]
  %86 = load ptr, ptr %63, align 8
  %.not50 = icmp eq ptr %86, null
  br i1 %.not50, label %90, label %87

87:                                               ; preds = %85
  %88 = load ptr, ptr getelementptr inbounds nuw (i8, ptr @evthread_lock_fns_, i64 32), align 8
  %89 = call i32 %88(i32 noundef 0, ptr noundef nonnull %86) #10
  br label %90

90:                                               ; preds = %85, %87
  %spec.select = call i64 @llvm.smin.i64(i64 %.035, i64 %.0)
  br label %91

91:                                               ; preds = %90, %58
  %.1 = phi i64 [ %spec.select, %90 ], [ %.035, %58 ]
  %spec.store.select = call i64 @llvm.smax.i64(i64 %.1, i64 0)
  br label %92

92:                                               ; preds = %2, %91
  %.034 = phi i64 [ %spec.store.select, %91 ], [ %4, %2 ]
  ret i64 %.034
}